target datalayout = "e-m:e-p270:32:32-p271:32:32-p272:64:64-i64:64-i128:128-f80:128-n8:16:32:64-S128"
target triple = "x86_64-pc-linux-gnu"

%struct.FunctionCallInfoBaseData = type { ptr, ptr, ptr, i32, i8, i16, [0 x %struct.NullableDatum] }
%struct.NullableDatum = type { i64, i8 }

@.str.7 = private unnamed_addr constant [14 x i8] c"pgstatfuncs.c\00", align 1
@.str.29 = private unnamed_addr constant [9 x i8] c"archiver\00", align 1
@.str.30 = private unnamed_addr constant [9 x i8] c"bgwriter\00", align 1
@.str.31 = private unnamed_addr constant [13 x i8] c"checkpointer\00", align 1
@.str.32 = private unnamed_addr constant [3 x i8] c"io\00", align 1
@.str.33 = private unnamed_addr constant [18 x i8] c"recovery_prefetch\00", align 1
@.str.34 = private unnamed_addr constant [5 x i8] c"slru\00", align 1
@.str.35 = private unnamed_addr constant [4 x i8] c"wal\00", align 1
@.str.36 = private unnamed_addr constant [32 x i8] c"unrecognized reset target: \22%s\22\00", align 1
@.str.37 = private unnamed_addr constant [100 x i8] c"Target must be \22archiver\22, \22bgwriter\22, \22checkpointer\22, \22io\22, \22recovery_prefetch\22, \22slru\22, or \22wal\22.\00", align 1
@__func__.pg_stat_reset_shared = private unnamed_addr constant [21 x i8] c"pg_stat_reset_shared\00", align 1

; Function Attrs: inlinehint nounwind uwtable
define internal ptr @DatumGetPointer(i64 noundef %0) #2 {
  %2 = alloca i64, align 8
  store i64 %0, ptr %2, align 8
  %3 = load i64, ptr %2, align 8
  %4 = inttoptr i64 %3 to ptr
  ret ptr %4
}

; Function Attrs: nounwind uwtable
define dso_local i64 @pg_stat_reset_shared(ptr noundef %0) #0 {
  %2 = alloca i64, align 8
  %3 = alloca ptr, align 8
  %4 = alloca ptr, align 8
  %5 = alloca i32, align 4
  store ptr %0, ptr %3, align 8
  call void @llvm.lifetime.start.p0(i64 8, ptr %4) #10
  store ptr null, ptr %4, align 8
  %6 = load ptr, ptr %3, align 8
  %7 = getelementptr inbounds nuw %struct.FunctionCallInfoBaseData, ptr %6, i32 0, i32 6
  %8 = getelementptr inbounds [0 x %struct.NullableDatum], ptr %7, i64 0, i64 0
  %9 = getelementptr inbounds nuw %struct.NullableDatum, ptr %8, i32 0, i32 1
  %10 = load i8, ptr %9, align 8, !range !8, !noundef !9
  %11 = trunc i8 %10 to i1
  br i1 %11, label %12, label %13

12:                                               ; preds = %1
  call void @pgstat_reset_of_kind(i32 noundef 7)
  call void @pgstat_reset_of_kind(i32 noundef 8)
  call void @pgstat_reset_of_kind(i32 noundef 9)
  call void @pgstat_reset_of_kind(i32 noundef 10)
  call void @XLogPrefetchResetStats()
  call void @pgstat_reset_of_kind(i32 noundef 11)
  call void @pgstat_reset_of_kind(i32 noundef 12)
  store i64 0, ptr %2, align 8
  store i32 1, ptr %5, align 4
  br label %77

13:                                               ; preds = %1
  %14 = load ptr, ptr %3, align 8
  %15 = getelementptr inbounds nuw %struct.FunctionCallInfoBaseData, ptr %14, i32 0, i32 6
  %16 = getelementptr inbounds [0 x %struct.NullableDatum], ptr %15, i64 0, i64 0
  %17 = getelementptr inbounds nuw %struct.NullableDatum, ptr %16, i32 0, i32 0
  %18 = load i64, ptr %17, align 8
  %19 = call ptr @DatumGetPointer(i64 noundef %18)
  %20 = call ptr @pg_detoast_datum_packed(ptr noundef %19)
  %21 = call ptr @text_to_cstring(ptr noundef %20)
  store ptr %21, ptr %4, align 8
  %22 = load ptr, ptr %4, align 8
  %23 = call i32 @strcmp(ptr noundef %22, ptr noundef @.str.29) #12
  %24 = icmp eq i32 %23, 0
  br i1 %24, label %25, label %26

25:                                               ; preds = %13
  call void @pgstat_reset_of_kind(i32 noundef 7)
  br label %76

26:                                               ; preds = %13
  %27 = load ptr, ptr %4, align 8
  %28 = call i32 @strcmp(ptr noundef %27, ptr noundef @.str.30) #12
  %29 = icmp eq i32 %28, 0
  br i1 %29, label %30, label %31

30:                                               ; preds = %26
  call void @pgstat_reset_of_kind(i32 noundef 8)
  br label %75

31:                                               ; preds = %26
  %32 = load ptr, ptr %4, align 8
  %33 = call i32 @strcmp(ptr noundef %32, ptr noundef @.str.31) #12
  %34 = icmp eq i32 %33, 0
  br i1 %34, label %35, label %36

35:                                               ; preds = %31
  call void @pgstat_reset_of_kind(i32 noundef 9)
  br label %74

36:                                               ; preds = %31
  %37 = load ptr, ptr %4, align 8
  %38 = call i32 @strcmp(ptr noundef %37, ptr noundef @.str.32) #12
  %39 = icmp eq i32 %38, 0
  br i1 %39, label %40, label %41

40:                                               ; preds = %36
  call void @pgstat_reset_of_kind(i32 noundef 10)
  br label %73

41:                                               ; preds = %36
  %42 = load ptr, ptr %4, align 8
  %43 = call i32 @strcmp(ptr noundef %42, ptr noundef @.str.33) #12
  %44 = icmp eq i32 %43, 0
  br i1 %44, label %45, label %46

45:                                               ; preds = %41
  call void @XLogPrefetchResetStats()
  br label %72

46:                                               ; preds = %41
  %47 = load ptr, ptr %4, align 8
  %48 = call i32 @strcmp(ptr noundef %47, ptr noundef @.str.34) #12
  %49 = icmp eq i32 %48, 0
  br i1 %49, label %50, label %51

50:                                               ; preds = %46
  call void @pgstat_reset_of_kind(i32 noundef 11)
  br label %71

51:                                               ; preds = %46
  %52 = load ptr, ptr %4, align 8
  %53 = call i32 @strcmp(ptr noundef %52, ptr noundef @.str.35) #12
  %54 = icmp eq i32 %53, 0
  br i1 %54, label %55, label %56

55:                                               ; preds = %51
  call void @pgstat_reset_of_kind(i32 noundef 12)
  br label %70

56:                                               ; preds = %51
  br label %57

57:                                               ; preds = %56
  br i1 true, label %58, label %60

58:                                               ; preds = %57
  %59 = call zeroext i1 @errstart_cold(i32 noundef 21, ptr noundef null) #11
  br i1 %59, label %62, label %67

60:                                               ; preds = %57
  %61 = call zeroext i1 @errstart(i32 noundef 21, ptr noundef null)
  br i1 %61, label %62, label %67

62:                                               ; preds = %60, %58
  %63 = call i32 @errcode(i32 noundef 50856066)
  %64 = load ptr, ptr %4, align 8
  %65 = call i32 (ptr, ...) @errmsg(ptr noundef @.str.36, ptr noundef %64)
  %66 = call i32 (ptr, ...) @errhint(ptr noundef @.str.37)
  call void @errfinish(ptr noundef @.str.7, i32 noundef 1909, ptr noundef @__func__.pg_stat_reset_shared)
  br label %67

67:                                               ; preds = %62, %60, %58
  unreachable

68:                                               ; No predecessors!
  br label %69

69:                                               ; preds = %68
  br label %70

70:                                               ; preds = %69, %55
  br label %71

71:                                               ; preds = %70, %50
  br label %72

72:                                               ; preds = %71, %45
  br label %73

73:                                               ; preds = %72, %40
  br label %74

74:                                               ; preds = %73, %35
  br label %75

75:                                               ; preds = %74, %30
  br label %76

76:                                               ; preds = %75, %25
  store i64 0, ptr %2, align 8
  store i32 1, ptr %5, align 4
  br label %77

77:                                               ; preds = %76, %12
  call void @llvm.lifetime.end.p0(i64 8, ptr %4) #10
  %78 = load i64, ptr %2, align 8
  ret i64 %78
}