; Function Attrs: nounwind uwtable
define dso_local noundef i64 @pg_stat_reset_shared(ptr noundef readonly captures(none) %0) local_unnamed_addr #0 {
  %2 = getelementptr inbounds nuw i8, ptr %0, i64 40
  %3 = load i8, ptr %2, align 8, !range !7, !noundef !8
  %4 = trunc nuw i8 %3 to i1
  br i1 %4, label %5, label %6

5:                                                ; preds = %1
  tail call void @pgstat_reset_of_kind(i32 noundef 7) #9
  tail call void @pgstat_reset_of_kind(i32 noundef 8) #9
  tail call void @pgstat_reset_of_kind(i32 noundef 9) #9
  tail call void @pgstat_reset_of_kind(i32 noundef 10) #9
  tail call void @XLogPrefetchResetStats() #9
  tail call void @pgstat_reset_of_kind(i32 noundef 11) #9
  tail call void @pgstat_reset_of_kind(i32 noundef 12) #9
  br label %46

6:                                                ; preds = %1
  %7 = getelementptr inbounds nuw i8, ptr %0, i64 32
  %8 = load i64, ptr %7, align 8
  %9 = inttoptr i64 %8 to ptr
  %10 = tail call ptr @pg_detoast_datum_packed(ptr noundef %9) #9
  %11 = tail call ptr @text_to_cstring(ptr noundef %10) #9
  %12 = tail call i32 @strcmp(ptr noundef nonnull dereferenceable(1) %11, ptr noundef nonnull dereferenceable(9) @.str.29) #11
  %13 = icmp eq i32 %12, 0
  br i1 %13, label %14, label %15

14:                                               ; preds = %6
  tail call void @pgstat_reset_of_kind(i32 noundef 7) #9
  br label %46

15:                                               ; preds = %6
  %16 = tail call i32 @strcmp(ptr noundef nonnull dereferenceable(1) %11, ptr noundef nonnull dereferenceable(9) @.str.30) #11
  %17 = icmp eq i32 %16, 0
  br i1 %17, label %18, label %19

18:                                               ; preds = %15
  tail call void @pgstat_reset_of_kind(i32 noundef 8) #9
  br label %46

19:                                               ; preds = %15
  %20 = tail call i32 @strcmp(ptr noundef nonnull dereferenceable(1) %11, ptr noundef nonnull dereferenceable(13) @.str.31) #11
  %21 = icmp eq i32 %20, 0
  br i1 %21, label %22, label %sub_0

22:                                               ; preds = %19
  tail call void @pgstat_reset_of_kind(i32 noundef 9) #9
  br label %46

sub_0:                                            ; preds = %19
  %23 = load i8, ptr %11, align 1
  %.not = icmp eq i8 %23, 105
  br i1 %.not, label %sub_1, label %.tail.thread

sub_1:                                            ; preds = %sub_0
  %24 = getelementptr inbounds nuw i8, ptr %11, i64 1
  %25 = load i8, ptr %24, align 1
  %.not10 = icmp eq i8 %25, 111
  br i1 %.not10, label %.tail, label %.tail.thread

.tail:                                            ; preds = %sub_1
  %26 = getelementptr inbounds nuw i8, ptr %11, i64 2
  %27 = load i8, ptr %26, align 1
  %28 = icmp eq i8 %27, 0
  br i1 %28, label %29, label %.tail.thread

29:                                               ; preds = %.tail
  tail call void @pgstat_reset_of_kind(i32 noundef 10) #9
  br label %46

.tail.thread:                                     ; preds = %sub_1, %sub_0, %.tail
  %30 = tail call i32 @strcmp(ptr noundef nonnull dereferenceable(1) %11, ptr noundef nonnull dereferenceable(18) @.str.33) #11
  %31 = icmp eq i32 %30, 0
  br i1 %31, label %32, label %33

32:                                               ; preds = %.tail.thread
  tail call void @XLogPrefetchResetStats() #9
  br label %46

33:                                               ; preds = %.tail.thread
  %34 = tail call i32 @strcmp(ptr noundef nonnull dereferenceable(1) %11, ptr noundef nonnull dereferenceable(5) @.str.34) #11
  %35 = icmp eq i32 %34, 0
  br i1 %35, label %36, label %37

36:                                               ; preds = %33
  tail call void @pgstat_reset_of_kind(i32 noundef 11) #9
  br label %46

37:                                               ; preds = %33
  %38 = tail call i32 @strcmp(ptr noundef nonnull dereferenceable(1) %11, ptr noundef nonnull dereferenceable(4) @.str.35) #11
  %39 = icmp eq i32 %38, 0
  br i1 %39, label %40, label %41

40:                                               ; preds = %37
  tail call void @pgstat_reset_of_kind(i32 noundef 12) #9
  br label %46

41:                                               ; preds = %37
  %42 = tail call zeroext i1 @errstart_cold(i32 noundef 21, ptr noundef null) #10
  tail call void @llvm.assume(i1 %42)
  %43 = tail call i32 @errcode(i32 noundef 50856066) #9
  %44 = tail call i32 (ptr, ...) @errmsg(ptr noundef nonnull @.str.36, ptr noundef nonnull %11) #9
  %45 = tail call i32 (ptr, ...) @errhint(ptr noundef nonnull @.str.37) #9
  tail call void @errfinish(ptr noundef nonnull @.str.7, i32 noundef 1909, ptr noundef nonnull @__func__.pg_stat_reset_shared) #9
  unreachable

46:                                               ; preds = %14, %22, %32, %40, %36, %29, %18, %5
  ret i64 0
}